target datalayout = "e-m:e-p270:32:32-p271:32:32-p272:64:64-i64:64-i128:128-f80:128-n8:16:32:64-S128"
target triple = "x86_64-pc-linux-gnu"

%class.anon = type { i8 }
%class.anon.0 = type { i8 }
%class.anon.2 = type { i8 }

@.str.2 = private unnamed_addr constant [9 x i8] c"mass > 0\00", align 1
@.str.3 = private unnamed_addr constant [42 x i8] c"Molecular mass should be larger than zero\00", align 1
@"__PRETTY_FUNCTION__._ZZ24calcTranslationalEntropyfffENK3$_0clEv" = private unnamed_addr constant [87 x i8] c"auto calcTranslationalEntropy(real, real, real)::(anonymous class)::operator()() const\00", align 1
@.str.4 = private unnamed_addr constant [132 x i8] c"generated/home/dtcxzyw/WorkSpace/Projects/compilers/llvm-opt-benchmark/bench/gromacs/gromacs/src/gromacs/gmxana/thermochemistry.cpp\00", align 1
@.str.5 = private unnamed_addr constant [13 x i8] c"pressure > 0\00", align 1
@.str.6 = private unnamed_addr constant [36 x i8] c"Pressure should be larger than zero\00", align 1
@.str.7 = private unnamed_addr constant [16 x i8] c"temperature > 0\00", align 1
@.str.8 = private unnamed_addr constant [39 x i8] c"Temperature should be larger than zero\00", align 1

; Function Attrs: mustprogress nounwind uwtable
define linkonce_odr noundef double @_ZN3gmx6squareIdEET_S1_(double noundef %0) #4 comdat {
  %2 = alloca double, align 8
  store double %0, ptr %2, align 8, !tbaa !4
  %3 = load double, ptr %2, align 8, !tbaa !4
  %4 = load double, ptr %2, align 8, !tbaa !4
  %5 = fmul double %3, %4
  ret double %5
}

; Function Attrs: inlinehint mustprogress uwtable
define internal void @"_ZZ24calcTranslationalEntropyfffENK3$_2clEv"(ptr noundef nonnull align 1 dereferenceable(1) %0) #7 align 2 {
  %2 = alloca ptr, align 8
  store ptr %0, ptr %2, align 8, !tbaa !36
  call void @_ZN3gmx8internal13assertHandlerEPKcS2_S2_S2_i(ptr noundef @.str.7, ptr noundef @.str.8, ptr noundef @"__PRETTY_FUNCTION__._ZZ24calcTranslationalEntropyfffENK3$_0clEv", ptr noundef @.str.4, i32 noundef 151) #10
  unreachable
}

; Function Attrs: inlinehint mustprogress uwtable
define internal void @"_ZZ24calcTranslationalEntropyfffENK3$_1clEv"(ptr noundef nonnull align 1 dereferenceable(1) %0) #7 align 2 {
  %2 = alloca ptr, align 8
  store ptr %0, ptr %2, align 8, !tbaa !36
  call void @_ZN3gmx8internal13assertHandlerEPKcS2_S2_S2_i(ptr noundef @.str.5, ptr noundef @.str.6, ptr noundef @"__PRETTY_FUNCTION__._ZZ24calcTranslationalEntropyfffENK3$_0clEv", ptr noundef @.str.4, i32 noundef 150) #10
  unreachable
}

; Function Attrs: inlinehint mustprogress uwtable
define internal void @"_ZZ24calcTranslationalEntropyfffENK3$_0clEv"(ptr noundef nonnull align 1 dereferenceable(1) %0) #7 align 2 {
  %2 = alloca ptr, align 8
  store ptr %0, ptr %2, align 8, !tbaa !36
  call void @_ZN3gmx8internal13assertHandlerEPKcS2_S2_S2_i(ptr noundef @.str.2, ptr noundef @.str.3, ptr noundef @"__PRETTY_FUNCTION__._ZZ24calcTranslationalEntropyfffENK3$_0clEv", ptr noundef @.str.4, i32 noundef 149) #10
  unreachable
}

; Function Attrs: mustprogress uwtable
define noundef double @_Z24calcTranslationalEntropyfff(float noundef %0, float noundef %1, float noundef %2) #0 {
  %4 = alloca float, align 4
  %5 = alloca float, align 4
  %6 = alloca float, align 4
  %7 = alloca double, align 8
  %8 = alloca %class.anon, align 1
  %9 = alloca %class.anon.0, align 1
  %10 = alloca %class.anon.2, align 1
  %11 = alloca double, align 8
  %12 = alloca double, align 8
  store float %0, ptr %4, align 4, !tbaa !13
  store float %1, ptr %5, align 4, !tbaa !13
  store float %2, ptr %6, align 4, !tbaa !13
  call void @llvm.lifetime.start.p0(i64 8, ptr %7) #9
  %13 = load float, ptr %5, align 4, !tbaa !13
  %14 = fpext float %13 to double
  %15 = fmul double 0x3F81072C483AF26D, %14
  store double %15, ptr %7, align 8, !tbaa !4
  %16 = load float, ptr %4, align 4, !tbaa !13
  %17 = fcmp ogt float %16, 0.000000e+00
  call void @llvm.lifetime.start.p0(i64 1, ptr %8) #9
  br i1 %17, label %18, label %19

18:                                               ; preds = %3
  br label %20

19:                                               ; preds = %3
  call void @"_ZZ24calcTranslationalEntropyfffENK3$_0clEv"(ptr noundef nonnull align 1 dereferenceable(1) %8)
  br label %20

20:                                               ; preds = %19, %18
  call void @llvm.lifetime.end.p0(i64 1, ptr %8) #9
  %21 = load float, ptr %6, align 4, !tbaa !13
  %22 = fcmp ogt float %21, 0.000000e+00
  call void @llvm.lifetime.start.p0(i64 1, ptr %9) #9
  br i1 %22, label %23, label %24

23:                                               ; preds = %20
  br label %25

24:                                               ; preds = %20
  call void @"_ZZ24calcTranslationalEntropyfffENK3$_1clEv"(ptr noundef nonnull align 1 dereferenceable(1) %9)
  br label %25

25:                                               ; preds = %24, %23
  call void @llvm.lifetime.end.p0(i64 1, ptr %9) #9
  %26 = load float, ptr %5, align 4, !tbaa !13
  %27 = fcmp ogt float %26, 0.000000e+00
  call void @llvm.lifetime.start.p0(i64 1, ptr %10) #9
  br i1 %27, label %28, label %29

28:                                               ; preds = %25
  br label %30

29:                                               ; preds = %25
  call void @"_ZZ24calcTranslationalEntropyfffENK3$_2clEv"(ptr noundef nonnull align 1 dereferenceable(1) %10)
  br label %30

30:                                               ; preds = %29, %28
  call void @llvm.lifetime.end.p0(i64 1, ptr %10) #9
  call void @llvm.lifetime.start.p0(i64 8, ptr %11) #9
  %31 = load float, ptr %6, align 4, !tbaa !13
  %32 = fpext float %31 to double
  %33 = fmul double %32, 1.000000e+05
  store double %33, ptr %11, align 8, !tbaa !4
  call void @llvm.lifetime.start.p0(i64 8, ptr %12) #9
  %34 = load float, ptr %4, align 4, !tbaa !13
  %35 = fpext float %34 to double
  %36 = fmul double 0x401921FB54442D18, %35
  %37 = load double, ptr %7, align 8, !tbaa !4
  %38 = fmul double %36, %37
  %39 = call noundef double @_ZN3gmx6squareIdEET_S1_(double noundef 0x3FD989BA751137D3)
  %40 = fdiv double %38, %39
  %41 = call double @pow(double noundef %40, double noundef 1.500000e+00) #9, !tbaa !8
  %42 = load double, ptr %7, align 8, !tbaa !4
  %43 = load double, ptr %11, align 8, !tbaa !4
  %44 = fdiv double %42, %43
  %45 = fmul double %41, %44
  %46 = fmul double %45, 0x4139567B11324E23
  store double %46, ptr %12, align 8, !tbaa !4
  %47 = load double, ptr %12, align 8, !tbaa !4
  %48 = call double @log(double noundef %47) #9, !tbaa !8
  %49 = fadd double %48, 2.500000e+00
  %50 = fmul double 0x4020A1013E8990BE, %49
  call void @llvm.lifetime.end.p0(i64 8, ptr %12) #9
  call void @llvm.lifetime.end.p0(i64 8, ptr %11) #9
  call void @llvm.lifetime.end.p0(i64 8, ptr %7) #9
  ret double %50
}