; Function Attrs: mustprogress uwtable
define noundef double @_Z24calcTranslationalEntropyfff(float noundef %0, float noundef %1, float noundef %2) local_unnamed_addr #6 {
  %4 = fcmp ogt float %0, 0.000000e+00
  br i1 %4, label %6, label %5

5:                                                ; preds = %3
  tail call void @_ZN3gmx8internal13assertHandlerEPKcS2_S2_S2_i(ptr noundef nonnull @.str.2, ptr noundef nonnull @.str.3, ptr noundef nonnull @"__PRETTY_FUNCTION__._ZZ24calcTranslationalEntropyfffENK3$_0clEv", ptr noundef nonnull @.str.4, i32 noundef 149) #9
  unreachable

6:                                                ; preds = %3
  %7 = fcmp ogt float %2, 0.000000e+00
  br i1 %7, label %9, label %8

8:                                                ; preds = %6
  tail call void @_ZN3gmx8internal13assertHandlerEPKcS2_S2_S2_i(ptr noundef nonnull @.str.5, ptr noundef nonnull @.str.6, ptr noundef nonnull @"__PRETTY_FUNCTION__._ZZ24calcTranslationalEntropyfffENK3$_0clEv", ptr noundef nonnull @.str.4, i32 noundef 150) #9
  unreachable

9:                                                ; preds = %6
  %10 = fcmp ogt float %1, 0.000000e+00
  br i1 %10, label %12, label %11

11:                                               ; preds = %9
  tail call void @_ZN3gmx8internal13assertHandlerEPKcS2_S2_S2_i(ptr noundef nonnull @.str.7, ptr noundef nonnull @.str.8, ptr noundef nonnull @"__PRETTY_FUNCTION__._ZZ24calcTranslationalEntropyfffENK3$_0clEv", ptr noundef nonnull @.str.4, i32 noundef 151) #9
  unreachable

12:                                               ; preds = %9
  %13 = fpext float %1 to double
  %14 = fmul double %13, 0x3F81072C483AF26D
  %15 = fpext float %2 to double
  %16 = fmul double %15, 1.000000e+05
  %17 = fpext float %0 to double
  %18 = fmul double %17, 0x401921FB54442D18
  %19 = fmul double %18, %14
  %20 = fdiv double %19, 0x3FC461841FB3BD3C
  %21 = tail call double @pow(double noundef %20, double noundef 1.500000e+00) #8, !tbaa !4
  %22 = fdiv double %14, %16
  %23 = fmul double %22, %21
  %24 = fmul double %23, 0x4139567B11324E23
  %25 = tail call double @log(double noundef %24) #8, !tbaa !4
  %26 = fadd double %25, 2.500000e+00
  %27 = fmul double %26, 0x4020A1013E8990BE
  ret double %27
}